
d1_1k_bootloader.elf:     file format elf32-littlearm

Sections:
Idx Name          Size      VMA       LMA       File off  Algn
  0 .text         00000060  00000000  00000000  00010000  2**2
                  CONTENTS, ALLOC, LOAD, READONLY, CODE
  1 .init         00000004  00000060  00000060  00010060  2**2
                  CONTENTS, ALLOC, LOAD, READONLY, CODE
  2 .fini         00000004  00000064  00000064  00010064  2**2
                  CONTENTS, ALLOC, LOAD, READONLY, CODE
  3 .data         000003b4  20000000  20000000  00020000  2**2
                  CONTENTS, ALLOC, LOAD, CODE
  4 .bss          00000188  200003b4  200003b4  000203b4  2**2
                  ALLOC
  5 .ARM.attributes 00000028  00000000  00000000  000203b4  2**0
                  CONTENTS, READONLY
  6 .comment      00000059  00000000  00000000  000203dc  2**0
                  CONTENTS, READONLY

Disassembly of section .text:

00000000 <vectors>:
   0:	fc 0f 00 20 09 00 00 00                             ... ....

00000008 <irq_handler_reset>:
   8:	2300      	movs	r3, #0
   a:	b570      	push	{r4, r5, r6, lr}
   c:	480d      	ldr	r0, [pc, #52]	; (44 <irq_handler_reset+0x3c>)
   e:	490e      	ldr	r1, [pc, #56]	; (48 <irq_handler_reset+0x40>)
  10:	4c0e      	ldr	r4, [pc, #56]	; (4c <irq_handler_reset+0x44>)
  12:	181a      	adds	r2, r3, r0
  14:	428a      	cmp	r2, r1
  16:	d30f      	bcc.n	38 <irq_handler_reset+0x30>
  18:	2100      	movs	r1, #0
  1a:	4b0d      	ldr	r3, [pc, #52]	; (50 <irq_handler_reset+0x48>)
  1c:	4a0d      	ldr	r2, [pc, #52]	; (54 <irq_handler_reset+0x4c>)
  1e:	4293      	cmp	r3, r2
  20:	d30e      	bcc.n	40 <irq_handler_reset+0x38>
  22:	4b0d      	ldr	r3, [pc, #52]	; (58 <irq_handler_reset+0x50>)
  24:	4798      	blx	r3
  26:	2380      	movs	r3, #128	; 0x80
  28:	00db      	lsls	r3, r3, #3
  2a:	681b      	ldr	r3, [r3, #0]
  2c:	f383 8808 	msr	MSP, r3
  30:	4b0a      	ldr	r3, [pc, #40]	; (5c <irq_handler_reset+0x54>)
  32:	681b      	ldr	r3, [r3, #0]
  34:	4718      	bx	r3
  36:	bd70      	pop	{r4, r5, r6, pc}
  38:	58e5      	ldr	r5, [r4, r3]
  3a:	3304      	adds	r3, #4
  3c:	6015      	str	r5, [r2, #0]
  3e:	e7e8      	b.n	12 <irq_handler_reset+0xa>
  40:	c302      	stmia	r3!, {r1}
  42:	e7ec      	b.n	1e <irq_handler_reset+0x16>
  44:	20000000 	.word	0x20000000
  48:	200003b4 	.word	0x200003b4
  4c:	00000068 	.word	0x00000068
  50:	200003b4 	.word	0x200003b4
  54:	2000053c 	.word	0x2000053c
  58:	2000003d 	.word	0x2000003d
  5c:	00000404 	.word	0x00000404

Disassembly of section .init:

00000060 <_init>:
  60:	b5f8      	push	{r3, r4, r5, r6, r7, lr}
  62:	46c0      	nop			; (mov r8, r8)

Disassembly of section .fini:

00000064 <_fini>:
  64:	b5f8      	push	{r3, r4, r5, r6, r7, lr}
  66:	46c0      	nop			; (mov r8, r8)

Disassembly of section .data:

20000000 <udc_control_send>:
20000000:	23c0      	movs	r3, #192	; 0xc0
20000002:	0489      	lsls	r1, r1, #18
20000004:	4a08      	ldr	r2, [pc, #32]	; (20000028 <udc_control_send+0x28>)
20000006:	059b      	lsls	r3, r3, #22
20000008:	0c89      	lsrs	r1, r1, #18
2000000a:	4319      	orrs	r1, r3
2000000c:	6110      	str	r0, [r2, #16]
2000000e:	6151      	str	r1, [r2, #20]
20000010:	2202      	movs	r2, #2
20000012:	4b06      	ldr	r3, [pc, #24]	; (2000002c <udc_control_send+0x2c>)
20000014:	721a      	strb	r2, [r3, #8]
20000016:	7999      	ldrb	r1, [r3, #6]
20000018:	3a82      	subs	r2, #130	; 0x82
2000001a:	430a      	orrs	r2, r1
2000001c:	719a      	strb	r2, [r3, #6]
2000001e:	7a1a      	ldrb	r2, [r3, #8]
20000020:	0792      	lsls	r2, r2, #30
20000022:	d5fc      	bpl.n	2000001e <udc_control_send+0x1e>
20000024:	4770      	bx	lr
20000026:	46c0      	nop			; (mov r8, r8)
20000028:	200003b4 	.word	0x200003b4
2000002c:	410050ff 	.word	0x410050ff

20000030 <udc_control_send_zlp>:
20000030:	2100      	movs	r1, #0
20000032:	b510      	push	{r4, lr}
20000034:	0008      	movs	r0, r1
20000036:	f7ff ffe3 	bl	20000000 <udc_control_send>
2000003a:	bd10      	pop	{r4, pc}

2000003c <main>:
2000003c:	2206      	movs	r2, #6
2000003e:	4bab      	ldr	r3, [pc, #684]	; (200002ec <main+0x2b0>)
20000040:	b5f0      	push	{r4, r5, r6, r7, lr}
20000042:	701a      	strb	r2, [r3, #0]
20000044:	2380      	movs	r3, #128	; 0x80
20000046:	49aa      	ldr	r1, [pc, #680]	; (200002f0 <main+0x2b4>)
20000048:	021b      	lsls	r3, r3, #8
2000004a:	618b      	str	r3, [r1, #24]
2000004c:	6a0a      	ldr	r2, [r1, #32]
2000004e:	b085      	sub	sp, #20
20000050:	421a      	tst	r2, r3
20000052:	d02e      	beq.n	200000b2 <main+0x76>
20000054:	4ba7      	ldr	r3, [pc, #668]	; (200002f4 <main+0x2b8>)
20000056:	4aa8      	ldr	r2, [pc, #672]	; (200002f8 <main+0x2bc>)
20000058:	6818      	ldr	r0, [r3, #0]
2000005a:	4290      	cmp	r0, r2
2000005c:	d023      	beq.n	200000a6 <main+0x6a>
2000005e:	601a      	str	r2, [r3, #0]
20000060:	2280      	movs	r2, #128	; 0x80
20000062:	0252      	lsls	r2, r2, #9
20000064:	9203      	str	r2, [sp, #12]
20000066:	9a03      	ldr	r2, [sp, #12]
20000068:	1e50      	subs	r0, r2, #1
2000006a:	9003      	str	r0, [sp, #12]
2000006c:	2a00      	cmp	r2, #0
2000006e:	d1fa      	bne.n	20000066 <main+0x2a>
20000070:	601a      	str	r2, [r3, #0]
20000072:	2382      	movs	r3, #130	; 0x82
20000074:	3202      	adds	r2, #2
20000076:	05db      	lsls	r3, r3, #23
20000078:	601a      	str	r2, [r3, #0]
2000007a:	2280      	movs	r2, #128	; 0x80
2000007c:	4b9f      	ldr	r3, [pc, #636]	; (200002fc <main+0x2c0>)
2000007e:	00d2      	lsls	r2, r2, #3
20000080:	605a      	str	r2, [r3, #4]
20000082:	3210      	adds	r2, #16
20000084:	6812      	ldr	r2, [r2, #0]
20000086:	609a      	str	r2, [r3, #8]
20000088:	2201      	movs	r2, #1
2000008a:	4252      	negs	r2, r2
2000008c:	60da      	str	r2, [r3, #12]
2000008e:	7818      	ldrb	r0, [r3, #0]
20000090:	3205      	adds	r2, #5
20000092:	4302      	orrs	r2, r0
20000094:	701a      	strb	r2, [r3, #0]
20000096:	785a      	ldrb	r2, [r3, #1]
20000098:	07d2      	lsls	r2, r2, #31
2000009a:	d5fc      	bpl.n	20000096 <main+0x5a>
2000009c:	68d8      	ldr	r0, [r3, #12]
2000009e:	2800      	cmp	r0, #0
200000a0:	d107      	bne.n	200000b2 <main+0x76>
200000a2:	b005      	add	sp, #20
200000a4:	bdf0      	pop	{r4, r5, r6, r7, pc}
200000a6:	2000      	movs	r0, #0
200000a8:	6018      	str	r0, [r3, #0]
200000aa:	4895      	ldr	r0, [pc, #596]	; (20000300 <main+0x2c4>)
200000ac:	7800      	ldrb	r0, [r0, #0]
200000ae:	07c0      	lsls	r0, r0, #31
200000b0:	d4d5      	bmi.n	2000005e <main+0x22>
200000b2:	4b94      	ldr	r3, [pc, #592]	; (20000304 <main+0x2c8>)
200000b4:	4894      	ldr	r0, [pc, #592]	; (20000308 <main+0x2cc>)
200000b6:	6a1a      	ldr	r2, [r3, #32]
200000b8:	4002      	ands	r2, r0
200000ba:	621a      	str	r2, [r3, #32]
200000bc:	22c2      	movs	r2, #194	; 0xc2
200000be:	2004      	movs	r0, #4
200000c0:	00d2      	lsls	r2, r2, #3
200000c2:	609a      	str	r2, [r3, #8]
200000c4:	4a91      	ldr	r2, [pc, #580]	; (2000030c <main+0x2d0>)
200000c6:	6050      	str	r0, [r2, #4]
200000c8:	2000      	movs	r0, #0
200000ca:	8498      	strh	r0, [r3, #36]	; 0x24
200000cc:	9200      	str	r2, [sp, #0]
200000ce:	68da      	ldr	r2, [r3, #12]
200000d0:	06d2      	lsls	r2, r2, #27
200000d2:	d5fc      	bpl.n	200000ce <main+0x92>
200000d4:	4a8e      	ldr	r2, [pc, #568]	; (20000310 <main+0x2d4>)
200000d6:	4c8f      	ldr	r4, [pc, #572]	; (20000314 <main+0x2d8>)
200000d8:	488f      	ldr	r0, [pc, #572]	; (20000318 <main+0x2dc>)
200000da:	62da      	str	r2, [r3, #44]	; 0x2c
200000dc:	6822      	ldr	r2, [r4, #0]
200000de:	6800      	ldr	r0, [r0, #0]
200000e0:	0e92      	lsrs	r2, r2, #26
200000e2:	0580      	lsls	r0, r0, #22
200000e4:	0292      	lsls	r2, r2, #10
200000e6:	0d80      	lsrs	r0, r0, #22
200000e8:	4302      	orrs	r2, r0
200000ea:	629a      	str	r2, [r3, #40]	; 0x28
200000ec:	4a8b      	ldr	r2, [pc, #556]	; (2000031c <main+0x2e0>)
200000ee:	849a      	strh	r2, [r3, #36]	; 0x24
200000f0:	0022      	movs	r2, r4
200000f2:	68d8      	ldr	r0, [r3, #12]
200000f4:	06c0      	lsls	r0, r0, #27
200000f6:	d5fc      	bpl.n	200000f2 <main+0xb6>
200000f8:	4b89      	ldr	r3, [pc, #548]	; (20000320 <main+0x2e4>)
200000fa:	488a      	ldr	r0, [pc, #552]	; (20000324 <main+0x2e8>)
200000fc:	6058      	str	r0, [r3, #4]
200000fe:	0018      	movs	r0, r3
20000100:	7843      	ldrb	r3, [r0, #1]
20000102:	09db      	lsrs	r3, r3, #7
20000104:	d1fc      	bne.n	20000100 <main+0xc4>
20000106:	4b88      	ldr	r3, [pc, #544]	; (20000328 <main+0x2ec>)
20000108:	628b      	str	r3, [r1, #40]	; 0x28
2000010a:	2320      	movs	r3, #32
2000010c:	4987      	ldr	r1, [pc, #540]	; (2000032c <main+0x2f0>)
2000010e:	69cc      	ldr	r4, [r1, #28]
20000110:	4323      	orrs	r3, r4
20000112:	61cb      	str	r3, [r1, #28]
20000114:	4b86      	ldr	r3, [pc, #536]	; (20000330 <main+0x2f4>)
20000116:	4c87      	ldr	r4, [pc, #540]	; (20000334 <main+0x2f8>)
20000118:	8043      	strh	r3, [r0, #2]
2000011a:	2301      	movs	r3, #1
2000011c:	7023      	strb	r3, [r4, #0]
2000011e:	78a1      	ldrb	r1, [r4, #2]
20000120:	07c9      	lsls	r1, r1, #31
20000122:	0fc9      	lsrs	r1, r1, #31
20000124:	d1fb      	bne.n	2000011e <main+0xe2>
20000126:	20f8      	movs	r0, #248	; 0xf8
20000128:	25e0      	movs	r5, #224	; 0xe0
2000012a:	6812      	ldr	r2, [r2, #0]
2000012c:	00c0      	lsls	r0, r0, #3
2000012e:	09d3      	lsrs	r3, r2, #7
20000130:	4003      	ands	r3, r0
20000132:	01ed      	lsls	r5, r5, #7
20000134:	0ad0      	lsrs	r0, r2, #11
20000136:	4028      	ands	r0, r5
20000138:	0252      	lsls	r2, r2, #9
2000013a:	0ed2      	lsrs	r2, r2, #27
2000013c:	4303      	orrs	r3, r0
2000013e:	4313      	orrs	r3, r2
20000140:	8523      	strh	r3, [r4, #40]	; 0x28
20000142:	2304      	movs	r3, #4
20000144:	4f7c      	ldr	r7, [pc, #496]	; (20000338 <main+0x2fc>)
20000146:	6267      	str	r7, [r4, #36]	; 0x24
20000148:	7023      	strb	r3, [r4, #0]
2000014a:	8121      	strh	r1, [r4, #8]
2000014c:	7822      	ldrb	r2, [r4, #0]
2000014e:	3b02      	subs	r3, #2
20000150:	4313      	orrs	r3, r2
20000152:	7023      	strb	r3, [r4, #0]
20000154:	8ba3      	ldrh	r3, [r4, #28]
20000156:	071b      	lsls	r3, r3, #28
20000158:	d524      	bpl.n	200001a4 <main+0x168>
2000015a:	2308      	movs	r3, #8
2000015c:	83a3      	strh	r3, [r4, #28]
2000015e:	2380      	movs	r3, #128	; 0x80
20000160:	72a3      	strb	r3, [r4, #10]
20000162:	2300      	movs	r3, #0
20000164:	0019      	movs	r1, r3
20000166:	001a      	movs	r2, r3
20000168:	3208      	adds	r2, #8
2000016a:	0152      	lsls	r2, r2, #5
2000016c:	3301      	adds	r3, #1
2000016e:	54a1      	strb	r1, [r4, r2]
20000170:	2b08      	cmp	r3, #8
20000172:	d1f8      	bne.n	20000166 <main+0x12a>
20000174:	2211      	movs	r2, #17
20000176:	4b71      	ldr	r3, [pc, #452]	; (2000033c <main+0x300>)
20000178:	705a      	strb	r2, [r3, #1]
2000017a:	7999      	ldrb	r1, [r3, #6]
2000017c:	322f      	adds	r2, #47	; 0x2f
2000017e:	4311      	orrs	r1, r2
20000180:	7199      	strb	r1, [r3, #6]
20000182:	2180      	movs	r1, #128	; 0x80
20000184:	7958      	ldrb	r0, [r3, #5]
20000186:	4249      	negs	r1, r1
20000188:	4301      	orrs	r1, r0
2000018a:	20c0      	movs	r0, #192	; 0xc0
2000018c:	7159      	strb	r1, [r3, #5]
2000018e:	496c      	ldr	r1, [pc, #432]	; (20000340 <main+0x304>)
20000190:	0580      	lsls	r0, r0, #22
20000192:	6139      	str	r1, [r7, #16]
20000194:	1889      	adds	r1, r1, r2
20000196:	6178      	str	r0, [r7, #20]
20000198:	6039      	str	r1, [r7, #0]
2000019a:	496a      	ldr	r1, [pc, #424]	; (20000344 <main+0x308>)
2000019c:	6079      	str	r1, [r7, #4]
2000019e:	7959      	ldrb	r1, [r3, #5]
200001a0:	430a      	orrs	r2, r1
200001a2:	715a      	strb	r2, [r3, #5]
200001a4:	4d65      	ldr	r5, [pc, #404]	; (2000033c <main+0x300>)
200001a6:	7a2b      	ldrb	r3, [r5, #8]
200001a8:	07db      	lsls	r3, r3, #31
200001aa:	d51a      	bpl.n	200001e2 <main+0x1a6>
200001ac:	4e66      	ldr	r6, [pc, #408]	; (20000348 <main+0x30c>)
200001ae:	6833      	ldr	r3, [r6, #0]
200001b0:	2b00      	cmp	r3, #0
200001b2:	d014      	beq.n	200001de <main+0x1a2>
200001b4:	061a      	lsls	r2, r3, #24
200001b6:	0f92      	lsrs	r2, r2, #30
200001b8:	d02c      	beq.n	20000214 <main+0x1d8>
200001ba:	0019      	movs	r1, r3
200001bc:	4a60      	ldr	r2, [pc, #384]	; (20000340 <main+0x304>)
200001be:	3140      	adds	r1, #64	; 0x40
200001c0:	3240      	adds	r2, #64	; 0x40
200001c2:	1ad2      	subs	r2, r2, r3
200001c4:	5ad0      	ldrh	r0, [r2, r3]
200001c6:	8018      	strh	r0, [r3, #0]
200001c8:	3302      	adds	r3, #2
200001ca:	428b      	cmp	r3, r1
200001cc:	d1fa      	bne.n	200001c4 <main+0x188>
200001ce:	9b00      	ldr	r3, [sp, #0]
200001d0:	7d1b      	ldrb	r3, [r3, #20]
200001d2:	07db      	lsls	r3, r3, #31
200001d4:	d5fb      	bpl.n	200001ce <main+0x192>
200001d6:	4b5d      	ldr	r3, [pc, #372]	; (2000034c <main+0x310>)
200001d8:	4798      	blx	r3
200001da:	2300      	movs	r3, #0
200001dc:	6033      	str	r3, [r6, #0]
200001de:	2301      	movs	r3, #1
200001e0:	722b      	strb	r3, [r5, #8]
200001e2:	7a2b      	ldrb	r3, [r5, #8]
200001e4:	06db      	lsls	r3, r3, #27
200001e6:	d5b5      	bpl.n	20000154 <main+0x118>
200001e8:	2310      	movs	r3, #16
200001ea:	722b      	strb	r3, [r5, #8]
200001ec:	796a      	ldrb	r2, [r5, #5]
200001ee:	4e54      	ldr	r6, [pc, #336]	; (20000340 <main+0x304>)
200001f0:	3330      	adds	r3, #48	; 0x30
200001f2:	4313      	orrs	r3, r2
200001f4:	0030      	movs	r0, r6
200001f6:	0032      	movs	r2, r6
200001f8:	716b      	strb	r3, [r5, #5]
200001fa:	3040      	adds	r0, #64	; 0x40
200001fc:	3208      	adds	r2, #8
200001fe:	8fd1      	ldrh	r1, [r2, #62]	; 0x3e
20000200:	7802      	ldrb	r2, [r0, #0]
20000202:	1d33      	adds	r3, r6, #4
20000204:	8fdb      	ldrh	r3, [r3, #62]	; 0x3e
20000206:	9001      	str	r0, [sp, #4]
20000208:	0010      	movs	r0, r2
2000020a:	2a01      	cmp	r2, #1
2000020c:	d10d      	bne.n	2000022a <main+0x1ee>
2000020e:	4b4f      	ldr	r3, [pc, #316]	; (2000034c <main+0x310>)
20000210:	4798      	blx	r3
20000212:	e79f      	b.n	20000154 <main+0x118>
20000214:	9900      	ldr	r1, [sp, #0]
20000216:	085a      	lsrs	r2, r3, #1
20000218:	61ca      	str	r2, [r1, #28]
2000021a:	9900      	ldr	r1, [sp, #0]
2000021c:	4a4c      	ldr	r2, [pc, #304]	; (20000350 <main+0x314>)
2000021e:	800a      	strh	r2, [r1, #0]
20000220:	9a00      	ldr	r2, [sp, #0]
20000222:	7d12      	ldrb	r2, [r2, #20]
20000224:	07d2      	lsls	r2, r2, #31
20000226:	d5fb      	bpl.n	20000220 <main+0x1e4>
20000228:	e7c7      	b.n	200001ba <main+0x17e>
2000022a:	227f      	movs	r2, #127	; 0x7f
2000022c:	4010      	ands	r0, r2
2000022e:	2801      	cmp	r0, #1
20000230:	d915      	bls.n	2000025e <main+0x222>
20000232:	2821      	cmp	r0, #33	; 0x21
20000234:	d18e      	bne.n	20000154 <main+0x118>
20000236:	9a01      	ldr	r2, [sp, #4]
20000238:	7850      	ldrb	r0, [r2, #1]
2000023a:	2803      	cmp	r0, #3
2000023c:	d045      	beq.n	200002ca <main+0x28e>
2000023e:	2805      	cmp	r0, #5
20000240:	d047      	beq.n	200002d2 <main+0x296>
20000242:	4a41      	ldr	r2, [pc, #260]	; (20000348 <main+0x30c>)
20000244:	2801      	cmp	r0, #1
20000246:	d105      	bne.n	20000254 <main+0x218>
20000248:	4842      	ldr	r0, [pc, #264]	; (20000354 <main+0x318>)
2000024a:	2900      	cmp	r1, #0
2000024c:	d146      	bne.n	200002dc <main+0x2a0>
2000024e:	0003      	movs	r3, r0
20000250:	3330      	adds	r3, #48	; 0x30
20000252:	6403      	str	r3, [r0, #64]	; 0x40
20000254:	6813      	ldr	r3, [r2, #0]
20000256:	2b00      	cmp	r3, #0
20000258:	d000      	beq.n	2000025c <main+0x220>
2000025a:	e77b      	b.n	20000154 <main+0x118>
2000025c:	e7d7      	b.n	2000020e <main+0x1d2>
2000025e:	9a01      	ldr	r2, [sp, #4]
20000260:	7850      	ldrb	r0, [r2, #1]
20000262:	2809      	cmp	r0, #9
20000264:	d900      	bls.n	20000268 <main+0x22c>
20000266:	e775      	b.n	20000154 <main+0x118>
20000268:	f000 f878 	bl	2000035c <__gnu_thumb1_case_shi>
2000026c:	001d0019 	.word	0x001d0019
20000270:	001dff74 	.word	0x001dff74
20000274:	0022ff74 	.word	0x0022ff74
20000278:	ff74000a 	.word	0xff74000a
2000027c:	002c0015 	.word	0x002c0015
20000280:	0a1b      	lsrs	r3, r3, #8
20000282:	4834      	ldr	r0, [pc, #208]	; (20000354 <main+0x318>)
20000284:	2b01      	cmp	r3, #1
20000286:	d003      	beq.n	20000290 <main+0x254>
20000288:	2b02      	cmp	r3, #2
2000028a:	d10c      	bne.n	200002a6 <main+0x26a>
2000028c:	4831      	ldr	r0, [pc, #196]	; (20000354 <main+0x318>)
2000028e:	3014      	adds	r0, #20
20000290:	4b31      	ldr	r3, [pc, #196]	; (20000358 <main+0x31c>)
20000292:	4798      	blx	r3
20000294:	e75e      	b.n	20000154 <main+0x118>
20000296:	482c      	ldr	r0, [pc, #176]	; (20000348 <main+0x30c>)
20000298:	2101      	movs	r1, #1
2000029a:	3004      	adds	r0, #4
2000029c:	e7f8      	b.n	20000290 <main+0x254>
2000029e:	482d      	ldr	r0, [pc, #180]	; (20000354 <main+0x318>)
200002a0:	2102      	movs	r1, #2
200002a2:	3030      	adds	r0, #48	; 0x30
200002a4:	e7f4      	b.n	20000290 <main+0x254>
200002a6:	2320      	movs	r3, #32
200002a8:	79aa      	ldrb	r2, [r5, #6]
200002aa:	4313      	orrs	r3, r2
200002ac:	71ab      	strb	r3, [r5, #6]
200002ae:	e751      	b.n	20000154 <main+0x118>
200002b0:	4b26      	ldr	r3, [pc, #152]	; (2000034c <main+0x310>)
200002b2:	4798      	blx	r3
200002b4:	2380      	movs	r3, #128	; 0x80
200002b6:	3604      	adds	r6, #4
200002b8:	8ff2      	ldrh	r2, [r6, #62]	; 0x3e
200002ba:	425b      	negs	r3, r3
200002bc:	4313      	orrs	r3, r2
200002be:	b2db      	uxtb	r3, r3
200002c0:	72a3      	strb	r3, [r4, #10]
200002c2:	e747      	b.n	20000154 <main+0x118>
200002c4:	4a20      	ldr	r2, [pc, #128]	; (20000348 <main+0x30c>)
200002c6:	6053      	str	r3, [r2, #4]
200002c8:	e7a1      	b.n	2000020e <main+0x1d2>
200002ca:	4b22      	ldr	r3, [pc, #136]	; (20000354 <main+0x318>)
200002cc:	2106      	movs	r1, #6
200002ce:	6c18      	ldr	r0, [r3, #64]	; 0x40
200002d0:	e7de      	b.n	20000290 <main+0x254>
200002d2:	4b20      	ldr	r3, [pc, #128]	; (20000354 <main+0x318>)
200002d4:	2101      	movs	r1, #1
200002d6:	6c18      	ldr	r0, [r3, #64]	; 0x40
200002d8:	3004      	adds	r0, #4
200002da:	e7d9      	b.n	20000290 <main+0x254>
200002dc:	0001      	movs	r1, r0
200002de:	3310      	adds	r3, #16
200002e0:	3138      	adds	r1, #56	; 0x38
200002e2:	019b      	lsls	r3, r3, #6
200002e4:	6401      	str	r1, [r0, #64]	; 0x40
200002e6:	6013      	str	r3, [r2, #0]
200002e8:	e7b4      	b.n	20000254 <main+0x218>
200002ea:	46c0      	nop			; (mov r8, r8)
200002ec:	4100444f 	.word	0x4100444f
200002f0:	41004400 	.word	0x41004400
200002f4:	20000ffc 	.word	0x20000ffc
200002f8:	f02669ef 	.word	0xf02669ef
200002fc:	41002000 	.word	0x41002000
20000300:	40000438 	.word	0x40000438
20000304:	40000800 	.word	0x40000800
20000308:	fffffcff 	.word	0xfffffcff
2000030c:	41004000 	.word	0x41004000
20000310:	0000bb80 	.word	0x0000bb80
20000314:	00806024 	.word	0x00806024
20000318:	00806028 	.word	0x00806028
2000031c:	0000052e 	.word	0x0000052e
20000320:	40000c00 	.word	0x40000c00
20000324:	00210700 	.word	0x00210700
20000328:	d6010019 	.word	0xd6010019
2000032c:	40000400 	.word	0x40000400
20000330:	00004006 	.word	0x00004006
20000334:	41005000 	.word	0x41005000
20000338:	200003b4 	.word	0x200003b4
2000033c:	410050ff 	.word	0x410050ff
20000340:	200004b4 	.word	0x200004b4
20000344:	30000040 	.word	0x30000040
20000348:	20000534 	.word	0x20000534
2000034c:	20000031 	.word	0x20000031
20000350:	ffffa502 	.word	0xffffa502
20000354:	20000370 	.word	0x20000370
20000358:	20000001 	.word	0x20000001

2000035c <__gnu_thumb1_case_shi>:
2000035c:	b403      	push	{r0, r1}
2000035e:	4671      	mov	r1, lr
20000360:	0849      	lsrs	r1, r1, #1
20000362:	0040      	lsls	r0, r0, #1
20000364:	0049      	lsls	r1, r1, #1
20000366:	5e09      	ldrsh	r1, [r1, r0]
20000368:	0049      	lsls	r1, r1, #1
2000036a:	448e      	add	lr, r1
2000036c:	bc03      	pop	{r0, r1}
2000036e:	4770      	bx	lr

20000370 <usb_device_descriptor>:
20000370:	0112 0100 01fe 4000 1209 2003 0104 0000     .......@... ....
20000380:	0100 0000                                   ....

20000384 <usb_configuration_hierarchy>:
20000384:	0209 001b 0101 8000 09fa 0004 0000 01fe     ................
20000394:	0002 2109 0003 4000 0000 0001               ...!...@....

200003a0 <dfu_status_choices>:
200003a0:	0000 0000 0002 0000 0000 0000 0005 0000     ................

200003b0 <dfu_status.9502>:
200003b0:	03a0 2000                                   ... 
